target datalayout = "e-m:e-p270:32:32-p271:32:32-p272:64:64-i64:64-i128:128-f80:128-n8:16:32:64-S128"
target triple = "x86_64-pc-linux-gnu"

%"class.gmx::StopConditionSignal" = type { i32, i8, i32, i32 }

@.str = private unnamed_addr constant [53 x i8] c"\0A\0AReceived the %s signal, stopping within %d steps\0A\0A\00", align 1
@stderr = external global ptr, align 8

; Function Attrs: mustprogress nounwind uwtable
define linkonce_odr noundef nonnull align 4 dereferenceable(4) ptr @_ZSt3maxIiERKT_S2_S2_(ptr noundef nonnull align 4 dereferenceable(4) %0, ptr noundef nonnull align 4 dereferenceable(4) %1) #1 comdat {
  %3 = alloca ptr, align 8
  %4 = alloca ptr, align 8
  %5 = alloca ptr, align 8
  store ptr %0, ptr %4, align 8
  store ptr %1, ptr %5, align 8
  %6 = load ptr, ptr %4, align 8
  %7 = load i32, ptr %6, align 4
  %8 = load ptr, ptr %5, align 8
  %9 = load i32, ptr %8, align 4
  %10 = icmp slt i32 %7, %9
  br i1 %10, label %11, label %13

11:                                               ; preds = %2
  %12 = load ptr, ptr %5, align 8
  store ptr %12, ptr %3, align 8
  br label %15

13:                                               ; preds = %2
  %14 = load ptr, ptr %4, align 8
  store ptr %14, ptr %3, align 8
  br label %15

15:                                               ; preds = %13, %11
  %16 = load ptr, ptr %3, align 8
  ret ptr %16
}

; Function Attrs: mustprogress uwtable
define noundef i32 @_ZN3gmx19StopConditionSignal9getSignalEP8_IO_FILE(ptr noundef nonnull align 4 dereferenceable(16) %0, ptr noundef %1) #0 align 2 {
  %3 = alloca ptr, align 8
  %4 = alloca ptr, align 8
  %5 = alloca i32, align 4
  %6 = alloca i32, align 4
  %7 = alloca i32, align 4
  store ptr %0, ptr %3, align 8
  store ptr %1, ptr %4, align 8
  %8 = load ptr, ptr %3, align 8
  store i32 0, ptr %5, align 4
  %9 = call noundef i32 @_Z22gmx_get_stop_conditionv()
  %10 = getelementptr inbounds %"class.gmx::StopConditionSignal", ptr %8, i32 0, i32 0
  %11 = load i32, ptr %10, align 4
  %12 = icmp sgt i32 %9, %11
  br i1 %12, label %13, label %57

13:                                               ; preds = %2
  store i32 -1, ptr %6, align 4
  %14 = call noundef i32 @_Z22gmx_get_stop_conditionv()
  %15 = icmp eq i32 %14, 1
  br i1 %15, label %23, label %16

16:                                               ; preds = %13
  %17 = getelementptr inbounds %"class.gmx::StopConditionSignal", ptr %8, i32 0, i32 1
  %18 = load i8, ptr %17, align 4
  %19 = trunc i8 %18 to i1
  br i1 %19, label %20, label %30

20:                                               ; preds = %16
  %21 = call noundef i32 @_Z22gmx_get_stop_conditionv()
  %22 = icmp eq i32 %21, 2
  br i1 %22, label %23, label %30

23:                                               ; preds = %20, %13
  store i32 1, ptr %5, align 4
  %24 = getelementptr inbounds %"class.gmx::StopConditionSignal", ptr %8, i32 0, i32 3
  %25 = getelementptr inbounds %"class.gmx::StopConditionSignal", ptr %8, i32 0, i32 2
  %26 = load i32, ptr %25, align 4
  %27 = mul nsw i32 2, %26
  store i32 %27, ptr %7, align 4
  %28 = call noundef nonnull align 4 dereferenceable(4) ptr @_ZSt3maxIiERKT_S2_S2_(ptr noundef nonnull align 4 dereferenceable(4) %24, ptr noundef nonnull align 4 dereferenceable(4) %7)
  %29 = load i32, ptr %28, align 4
  store i32 %29, ptr %6, align 4
  br label %38

30:                                               ; preds = %20, %16
  %31 = call noundef i32 @_Z22gmx_get_stop_conditionv()
  %32 = icmp eq i32 %31, 2
  br i1 %32, label %33, label %37

33:                                               ; preds = %30
  store i32 -1, ptr %5, align 4
  %34 = getelementptr inbounds %"class.gmx::StopConditionSignal", ptr %8, i32 0, i32 2
  %35 = load i32, ptr %34, align 4
  %36 = add nsw i32 %35, 1
  store i32 %36, ptr %6, align 4
  br label %37

37:                                               ; preds = %33, %30
  br label %38

38:                                               ; preds = %37, %23
  %39 = load ptr, ptr %4, align 8
  %40 = icmp ne ptr %39, null
  br i1 %40, label %41, label %48

41:                                               ; preds = %38
  %42 = load ptr, ptr %4, align 8
  %43 = call noundef ptr @_Z19gmx_get_signal_namev()
  %44 = load i32, ptr %6, align 4
  %45 = call i32 (ptr, ptr, ...) @fprintf(ptr noundef %42, ptr noundef @.str, ptr noundef %43, i32 noundef %44) #11
  %46 = load ptr, ptr %4, align 8
  %47 = call i32 @fflush(ptr noundef %46)
  br label %48

48:                                               ; preds = %41, %38
  %49 = load ptr, ptr @stderr, align 8
  %50 = call noundef ptr @_Z19gmx_get_signal_namev()
  %51 = load i32, ptr %6, align 4
  %52 = call i32 (ptr, ptr, ...) @fprintf(ptr noundef %49, ptr noundef @.str, ptr noundef %50, i32 noundef %51) #11
  %53 = load ptr, ptr @stderr, align 8
  %54 = call i32 @fflush(ptr noundef %53)
  %55 = call noundef i32 @_Z22gmx_get_stop_conditionv()
  %56 = getelementptr inbounds %"class.gmx::StopConditionSignal", ptr %8, i32 0, i32 0
  store i32 %55, ptr %56, align 4
  br label %57

57:                                               ; preds = %48, %2
  %58 = load i32, ptr %5, align 4
  ret i32 %58
}