; Function Attrs: mustprogress uwtable
define noundef i32 @_ZN3gmx19StopConditionSignal9getSignalEP8_IO_FILE(ptr nocapture noundef nonnull align 4 dereferenceable(16) %0, ptr noundef %1) local_unnamed_addr #2 align 2 {
  %3 = tail call noundef i32 @_Z22gmx_get_stop_conditionv()
  %4 = load i32, ptr %0, align 4
  %5 = icmp sgt i32 %3, %4
  br i1 %5, label %6, label %41

6:                                                ; preds = %2
  %7 = tail call noundef i32 @_Z22gmx_get_stop_conditionv()
  %8 = icmp eq i32 %7, 1
  br i1 %8, label %16, label %9

9:                                                ; preds = %6
  %10 = getelementptr inbounds i8, ptr %0, i64 4
  %11 = load i8, ptr %10, align 4
  %12 = trunc i8 %11 to i1
  br i1 %12, label %13, label %22

13:                                               ; preds = %9
  %14 = tail call noundef i32 @_Z22gmx_get_stop_conditionv()
  %15 = icmp eq i32 %14, 2
  br i1 %15, label %16, label %22

16:                                               ; preds = %13, %6
  %17 = getelementptr inbounds i8, ptr %0, i64 12
  %18 = getelementptr inbounds i8, ptr %0, i64 8
  %19 = load i32, ptr %18, align 4
  %20 = shl nsw i32 %19, 1
  %21 = load i32, ptr %17, align 4
  %.sroa.speculated = tail call i32 @llvm.smax.i32(i32 %21, i32 %20)
  br label %29

22:                                               ; preds = %13, %9
  %23 = tail call noundef i32 @_Z22gmx_get_stop_conditionv()
  %24 = icmp eq i32 %23, 2
  br i1 %24, label %25, label %29

25:                                               ; preds = %22
  %26 = getelementptr inbounds i8, ptr %0, i64 8
  %27 = load i32, ptr %26, align 4
  %28 = add nsw i32 %27, 1
  br label %29

29:                                               ; preds = %22, %25, %16
  %.06 = phi i32 [ 1, %16 ], [ -1, %25 ], [ 0, %22 ]
  %.0 = phi i32 [ %.sroa.speculated, %16 ], [ %28, %25 ], [ -1, %22 ]
  %.not = icmp eq ptr %1, null
  br i1 %.not, label %34, label %30

30:                                               ; preds = %29
  %31 = tail call noundef ptr @_Z19gmx_get_signal_namev()
  %32 = tail call i32 (ptr, ptr, ...) @fprintf(ptr noundef nonnull %1, ptr noundef nonnull @.str, ptr noundef %31, i32 noundef %.0) #15
  %33 = tail call i32 @fflush(ptr noundef nonnull %1)
  br label %34

34:                                               ; preds = %30, %29
  %35 = load ptr, ptr @stderr, align 8
  %36 = tail call noundef ptr @_Z19gmx_get_signal_namev()
  %37 = tail call i32 (ptr, ptr, ...) @fprintf(ptr noundef %35, ptr noundef nonnull @.str, ptr noundef %36, i32 noundef %.0) #16
  %38 = load ptr, ptr @stderr, align 8
  %39 = tail call i32 @fflush(ptr noundef %38)
  %40 = tail call noundef i32 @_Z22gmx_get_stop_conditionv()
  store i32 %40, ptr %0, align 4
  br label %41

41:                                               ; preds = %34, %2
  %.1 = phi i32 [ %.06, %34 ], [ 0, %2 ]
  ret i32 %.1
}